target datalayout = "e-m:e-p270:32:32-p271:32:32-p272:64:64-i64:64-i128:128-f80:128-n8:16:32:64-S128"
target triple = "x86_64-pc-linux-gnu"

%class.TransTableL = type { %class.TransTable, i32, i32, i32, i32, i32, i32, %"struct.TransTableL::pageStatsType", [8192 x %"struct.TransTableL::aggrType"], [12 x [4 x ptr]], [12 x [4 x ptr]], ptr, ptr, %"struct.TransTableL::harvestedType", i32, i32 }
%class.TransTable = type { ptr }
%"struct.TransTableL::pageStatsType" = type { i32, i32, i32, i32, i32 }
%"struct.TransTableL::aggrType" = type { [4 x i32], [4 x [4 x i32]] }
%"struct.TransTableL::harvestedType" = type { i32, [1000 x ptr] }
%"struct.TransTableL::distHashType" = type { i32, i32, [32 x %"struct.TransTableL::posSearchType"] }
%"struct.TransTableL::posSearchType" = type { ptr, i64 }
%"struct.TransTableL::winBlockType" = type { i32, i32, i32, [125 x %"struct.TransTableL::winMatchType"] }
%"struct.TransTableL::winMatchType" = type { i32, i32, i32, i32, i32, i32, i32, i32, i32, i32, i32, %struct.nodeCardsType }
%struct.nodeCardsType = type { i8, i8, i8, i8, [4 x i8] }

; Function Attrs: mustprogress nounwind uwtable
define void @_ZNK11TransTableL15UpdateEntryHistEiiPiRi(ptr noundef nonnull align 8 dereferenceable(664216) %0, i32 noundef %1, i32 noundef %2, ptr noundef %3, ptr noundef nonnull align 4 dereferenceable(4) %4) #5 align 2 {
  %6 = alloca ptr, align 8
  %7 = alloca i32, align 4
  %8 = alloca i32, align 4
  %9 = alloca ptr, align 8
  %10 = alloca ptr, align 8
  %11 = alloca ptr, align 8
  %12 = alloca i32, align 4
  %13 = alloca i32, align 4
  %14 = alloca i32, align 4
  %15 = alloca i32, align 4
  store ptr %0, ptr %6, align 8
  store i32 %1, ptr %7, align 4
  store i32 %2, ptr %8, align 4
  store ptr %3, ptr %9, align 8
  store ptr %4, ptr %10, align 8
  %16 = load ptr, ptr %6, align 8
  %17 = load ptr, ptr %10, align 8
  store i32 0, ptr %17, align 4
  store i32 0, ptr %12, align 4
  br label %18

18:                                               ; preds = %26, %5
  %19 = load i32, ptr %12, align 4
  %20 = icmp sle i32 %19, 125
  br i1 %20, label %21, label %29

21:                                               ; preds = %18
  %22 = load ptr, ptr %9, align 8
  %23 = load i32, ptr %12, align 4
  %24 = sext i32 %23 to i64
  %25 = getelementptr inbounds i32, ptr %22, i64 %24
  store i32 0, ptr %25, align 4
  br label %26

26:                                               ; preds = %21
  %27 = load i32, ptr %12, align 4
  %28 = add nsw i32 %27, 1
  store i32 %28, ptr %12, align 4
  br label %18, !llvm.loop !61

29:                                               ; preds = %18
  store i32 0, ptr %13, align 4
  br label %30

30:                                               ; preds = %87, %29
  %31 = load i32, ptr %13, align 4
  %32 = icmp slt i32 %31, 256
  br i1 %32, label %33, label %90

33:                                               ; preds = %30
  %34 = getelementptr inbounds nuw %class.TransTableL, ptr %16, i32 0, i32 9
  %35 = load i32, ptr %7, align 4
  %36 = sext i32 %35 to i64
  %37 = getelementptr inbounds [12 x [4 x ptr]], ptr %34, i64 0, i64 %36
  %38 = load i32, ptr %8, align 4
  %39 = sext i32 %38 to i64
  %40 = getelementptr inbounds [4 x ptr], ptr %37, i64 0, i64 %39
  %41 = load ptr, ptr %40, align 8
  %42 = load i32, ptr %13, align 4
  %43 = sext i32 %42 to i64
  %44 = getelementptr inbounds %"struct.TransTableL::distHashType", ptr %41, i64 %43
  store ptr %44, ptr %11, align 8
  store i32 0, ptr %14, align 4
  br label %45

45:                                               ; preds = %83, %33
  %46 = load i32, ptr %14, align 4
  %47 = load ptr, ptr %11, align 8
  %48 = getelementptr inbounds nuw %"struct.TransTableL::distHashType", ptr %47, i32 0, i32 0
  %49 = load i32, ptr %48, align 8
  %50 = icmp slt i32 %46, %49
  br i1 %50, label %51, label %86

51:                                               ; preds = %45
  %52 = load ptr, ptr %11, align 8
  %53 = getelementptr inbounds nuw %"struct.TransTableL::distHashType", ptr %52, i32 0, i32 2
  %54 = load i32, ptr %14, align 4
  %55 = sext i32 %54 to i64
  %56 = getelementptr inbounds [32 x %"struct.TransTableL::posSearchType"], ptr %53, i64 0, i64 %55
  %57 = getelementptr inbounds nuw %"struct.TransTableL::posSearchType", ptr %56, i32 0, i32 0
  %58 = load ptr, ptr %57, align 8
  %59 = getelementptr inbounds nuw %"struct.TransTableL::winBlockType", ptr %58, i32 0, i32 0
  %60 = load i32, ptr %59, align 4
  store i32 %60, ptr %15, align 4
  %61 = load ptr, ptr %9, align 8
  %62 = load i32, ptr %15, align 4
  %63 = sext i32 %62 to i64
  %64 = getelementptr inbounds i32, ptr %61, i64 %63
  %65 = load i32, ptr %64, align 4
  %66 = add nsw i32 %65, 1
  store i32 %66, ptr %64, align 4
  %67 = load i32, ptr %15, align 4
  %68 = load ptr, ptr %11, align 8
  %69 = getelementptr inbounds nuw %"struct.TransTableL::distHashType", ptr %68, i32 0, i32 2
  %70 = load i32, ptr %14, align 4
  %71 = sext i32 %70 to i64
  %72 = getelementptr inbounds [32 x %"struct.TransTableL::posSearchType"], ptr %69, i64 0, i64 %71
  %73 = getelementptr inbounds nuw %"struct.TransTableL::posSearchType", ptr %72, i32 0, i32 0
  %74 = load ptr, ptr %73, align 8
  %75 = getelementptr inbounds nuw %"struct.TransTableL::winBlockType", ptr %74, i32 0, i32 1
  %76 = load i32, ptr %75, align 4
  %77 = icmp ne i32 %67, %76
  br i1 %77, label %78, label %82

78:                                               ; preds = %51
  %79 = load ptr, ptr %10, align 8
  %80 = load i32, ptr %79, align 4
  %81 = add nsw i32 %80, 1
  store i32 %81, ptr %79, align 4
  br label %82

82:                                               ; preds = %78, %51
  br label %83

83:                                               ; preds = %82
  %84 = load i32, ptr %14, align 4
  %85 = add nsw i32 %84, 1
  store i32 %85, ptr %14, align 4
  br label %45, !llvm.loop !62

86:                                               ; preds = %45
  br label %87

87:                                               ; preds = %86
  %88 = load i32, ptr %13, align 4
  %89 = add nsw i32 %88, 1
  store i32 %89, ptr %13, align 4
  br label %30, !llvm.loop !63

90:                                               ; preds = %30
  ret void
}