; Function Attrs: mustprogress nofree norecurse nosync nounwind memory(read, argmem: readwrite, inaccessiblemem: none) uwtable
define void @_ZNK11TransTableL15UpdateEntryHistEiiPiRi(ptr nocapture noundef nonnull readonly align 8 dereferenceable(664216) %0, i32 noundef %1, i32 noundef %2, ptr nocapture noundef %3, ptr nocapture noundef nonnull align 4 dereferenceable(4) %4) local_unnamed_addr #24 align 2 {
.preheader:
  store i32 0, ptr %4, align 4
  tail call void @llvm.memset.p0.i64(ptr noundef nonnull align 4 dereferenceable(504) %3, i8 0, i64 504, i1 false)
  %5 = getelementptr inbounds nuw i8, ptr %0, i64 655416
  %6 = sext i32 %1 to i64
  %7 = sext i32 %2 to i64
  %8 = getelementptr inbounds [12 x [4 x ptr]], ptr %5, i64 0, i64 %6, i64 %7
  br label %9

9:                                                ; preds = %.preheader, %._crit_edge
  %indvars.iv28 = phi i64 [ 0, %.preheader ], [ %indvars.iv.next29, %._crit_edge ]
  %10 = load ptr, ptr %8, align 8
  %11 = getelementptr inbounds %"struct.TransTableL::distHashType", ptr %10, i64 %indvars.iv28
  %12 = load i32, ptr %11, align 8
  %13 = icmp sgt i32 %12, 0
  br i1 %13, label %.lr.ph, label %._crit_edge

.lr.ph:                                           ; preds = %9
  %14 = getelementptr inbounds nuw i8, ptr %11, i64 8
  br label %15

15:                                               ; preds = %.lr.ph, %29
  %indvars.iv = phi i64 [ 0, %.lr.ph ], [ %indvars.iv.next, %29 ]
  %16 = getelementptr inbounds [32 x %"struct.TransTableL::posSearchType"], ptr %14, i64 0, i64 %indvars.iv
  %17 = load ptr, ptr %16, align 8
  %18 = load i32, ptr %17, align 4
  %19 = sext i32 %18 to i64
  %20 = getelementptr inbounds i32, ptr %3, i64 %19
  %21 = load i32, ptr %20, align 4
  %22 = add nsw i32 %21, 1
  store i32 %22, ptr %20, align 4
  %23 = load ptr, ptr %16, align 8
  %24 = getelementptr inbounds nuw i8, ptr %23, i64 4
  %25 = load i32, ptr %24, align 4
  %.not = icmp eq i32 %18, %25
  br i1 %.not, label %29, label %26

26:                                               ; preds = %15
  %27 = load i32, ptr %4, align 4
  %28 = add nsw i32 %27, 1
  store i32 %28, ptr %4, align 4
  br label %29

29:                                               ; preds = %15, %26
  %indvars.iv.next = add nuw nsw i64 %indvars.iv, 1
  %30 = load i32, ptr %11, align 8
  %31 = sext i32 %30 to i64
  %32 = icmp slt i64 %indvars.iv.next, %31
  br i1 %32, label %15, label %._crit_edge, !llvm.loop !88

._crit_edge:                                      ; preds = %29, %9
  %indvars.iv.next29 = add nuw nsw i64 %indvars.iv28, 1
  %exitcond.not = icmp eq i64 %indvars.iv.next29, 256
  br i1 %exitcond.not, label %33, label %9, !llvm.loop !89

33:                                               ; preds = %._crit_edge
  ret void
}